; Function Attrs: mustprogress uwtable
define noundef zeroext i1 @_ZNK32pxrInternal_v0_24__pxrReserved__7UsdPrim20_ApplySingleApplyAPIERKNS_17UsdSchemaRegistry10SchemaInfoE(ptr noundef nonnull align 8 dereferenceable(32) %0, ptr noundef nonnull align 8 dereferenceable(32) %1) local_unnamed_addr #0 align 2 personality ptr @__gxx_personality_v0 {
  %3 = alloca %"class.pxrInternal_v0_24__pxrReserved__::TfCallContext", align 8
  %4 = alloca %"class.std::__cxx11::basic_string", align 8
  %5 = tail call fastcc noundef zeroext i1 @_ZN32pxrInternal_v0_24__pxrReserved__L25_ValidateIsSingleApplyAPIEPKcRKNS_17UsdSchemaRegistry10SchemaInfoEPNSt7__cxx1112basic_stringIcSt11char_traitsIcESaIcEEE(ptr noundef nonnull @.str.6, ptr noundef nonnull align 8 dereferenceable(32) %1, ptr noundef null)
  br i1 %5, label %6, label %33

6:                                                ; preds = %2
  %7 = load i32, ptr %0, align 8
  switch i32 %7, label %_ZNK32pxrInternal_v0_24__pxrReserved__9UsdObject7IsValidEv.exit.thread [
    i32 4, label %8
    i32 3, label %8
    i32 1, label %8
  ]

8:                                                ; preds = %6, %6, %6
  %9 = getelementptr inbounds nuw i8, ptr %0, i64 8
  %10 = load ptr, ptr %9, align 8
  %.not.i.i = icmp eq ptr %10, null
  br i1 %.not.i.i, label %_ZNK32pxrInternal_v0_24__pxrReserved__9UsdObject7IsValidEv.exit.thread, label %_ZNK32pxrInternal_v0_24__pxrReserved__18Usd_PrimDataHandlecvbEv.exit.i

_ZNK32pxrInternal_v0_24__pxrReserved__18Usd_PrimDataHandlecvbEv.exit.i: ; preds = %8
  %11 = getelementptr inbounds nuw i8, ptr %10, i64 56
  %12 = load i64, ptr %11, align 8
  %13 = and i64 %12, 2048
  %.not3.i.i = icmp eq i64 %13, 0
  br i1 %.not3.i.i, label %14, label %_ZNK32pxrInternal_v0_24__pxrReserved__9UsdObject7IsValidEv.exit.thread

14:                                               ; preds = %_ZNK32pxrInternal_v0_24__pxrReserved__18Usd_PrimDataHandlecvbEv.exit.i
  %15 = icmp eq i32 %7, 1
  br i1 %15, label %_ZNK32pxrInternal_v0_24__pxrReserved__9UsdObject7IsValidEv.exit.thread7, label %16

16:                                               ; preds = %14
  %17 = tail call noundef i32 @_ZNK32pxrInternal_v0_24__pxrReserved__9UsdObject20_GetDefiningSpecTypeEv(ptr noundef nonnull align 8 dereferenceable(32) %0)
  %18 = load i32, ptr %0, align 8
  %19 = icmp eq i32 %18, 3
  %20 = icmp eq i32 %17, 1
  %or.cond.i = and i1 %20, %19
  br i1 %or.cond.i, label %_ZNK32pxrInternal_v0_24__pxrReserved__9UsdObject7IsValidEv.exit.thread7, label %_ZNK32pxrInternal_v0_24__pxrReserved__9UsdObject7IsValidEv.exit

_ZNK32pxrInternal_v0_24__pxrReserved__9UsdObject7IsValidEv.exit: ; preds = %16
  %21 = icmp eq i32 %18, 4
  %22 = icmp eq i32 %17, 8
  %23 = and i1 %22, %21
  br i1 %23, label %_ZNK32pxrInternal_v0_24__pxrReserved__9UsdObject7IsValidEv.exit.thread7, label %_ZNK32pxrInternal_v0_24__pxrReserved__9UsdObject7IsValidEv.exit.thread

_ZNK32pxrInternal_v0_24__pxrReserved__9UsdObject7IsValidEv.exit.thread: ; preds = %8, %6, %_ZNK32pxrInternal_v0_24__pxrReserved__18Usd_PrimDataHandlecvbEv.exit.i, %_ZNK32pxrInternal_v0_24__pxrReserved__9UsdObject7IsValidEv.exit
  store ptr @.str, ptr %3, align 8
  %24 = getelementptr inbounds nuw i8, ptr %3, i64 8
  store ptr @__func__._ZNK32pxrInternal_v0_24__pxrReserved__7UsdPrim20_ApplySingleApplyAPIERKNS_17UsdSchemaRegistry10SchemaInfoE, ptr %24, align 8
  %25 = getelementptr inbounds nuw i8, ptr %3, i64 16
  store i64 842, ptr %25, align 8
  %26 = getelementptr inbounds nuw i8, ptr %3, i64 24
  store ptr @__PRETTY_FUNCTION__._ZNK32pxrInternal_v0_24__pxrReserved__7UsdPrim20_ApplySingleApplyAPIERKNS_17UsdSchemaRegistry10SchemaInfoE, ptr %26, align 8
  %27 = getelementptr inbounds nuw i8, ptr %3, i64 32
  store i8 0, ptr %27, align 8
  call void @_ZNK32pxrInternal_v0_24__pxrReserved__9UsdObject14GetDescriptionB5cxx11Ev(ptr dead_on_unwind nonnull writable sret(%"class.std::__cxx11::basic_string") align 8 %4, ptr noundef nonnull align 8 dereferenceable(32) %0)
  %28 = call noundef ptr @_ZNKSt7__cxx1112basic_stringIcSt11char_traitsIcESaIcEE5c_strEv(ptr noundef nonnull align 8 dereferenceable(32) %4) #18
  invoke void (ptr, i32, ptr, ...) @_ZN32pxrInternal_v0_24__pxrReserved__18Tf_PostErrorHelperERKNS_13TfCallContextENS_16TfDiagnosticTypeEPKcz(ptr noundef nonnull align 8 dereferenceable(33) %3, i32 noundef 1, ptr noundef nonnull @.str.7, ptr noundef %28)
          to label %29 unwind label %30

29:                                               ; preds = %_ZNK32pxrInternal_v0_24__pxrReserved__9UsdObject7IsValidEv.exit.thread
  call void @_ZNSt7__cxx1112basic_stringIcSt11char_traitsIcESaIcEED1Ev(ptr noundef nonnull align 8 dereferenceable(32) %4) #18
  br label %33

30:                                               ; preds = %_ZNK32pxrInternal_v0_24__pxrReserved__9UsdObject7IsValidEv.exit.thread
  %31 = landingpad { ptr, i32 }
          cleanup
  call void @_ZNSt7__cxx1112basic_stringIcSt11char_traitsIcESaIcEED1Ev(ptr noundef nonnull align 8 dereferenceable(32) %4) #18
  resume { ptr, i32 } %31

_ZNK32pxrInternal_v0_24__pxrReserved__9UsdObject7IsValidEv.exit.thread7: ; preds = %16, %14, %_ZNK32pxrInternal_v0_24__pxrReserved__9UsdObject7IsValidEv.exit
  %32 = tail call noundef zeroext i1 @_ZNK32pxrInternal_v0_24__pxrReserved__7UsdPrim16AddAppliedSchemaERKNS_7TfTokenE(ptr noundef nonnull align 8 dereferenceable(32) %0, ptr noundef nonnull align 8 dereferenceable(8) %1)
  br label %33

33:                                               ; preds = %2, %_ZNK32pxrInternal_v0_24__pxrReserved__9UsdObject7IsValidEv.exit.thread7, %29
  %.0 = phi i1 [ %32, %_ZNK32pxrInternal_v0_24__pxrReserved__9UsdObject7IsValidEv.exit.thread7 ], [ false, %29 ], [ false, %2 ]
  ret i1 %.0
}